target datalayout = "e-m:e-p270:32:32-p271:32:32-p272:64:64-i64:64-i128:128-f80:128-n8:16:32:64-S128"
target triple = "x86_64-pc-linux-gnu"

%struct.pg_enc2name = type { ptr, i32 }

@pg_enc2name_tbl = external constant [0 x %struct.pg_enc2name], align 8
@.str.1 = private unnamed_addr constant [10 x i8] c"mbutils.c\00", align 1
@DatabaseEncoding = internal global ptr @pg_enc2name_tbl, align 8
@.str.11 = private unnamed_addr constant [30 x i8] c"invalid database encoding: %d\00", align 1
@__func__.SetDatabaseEncoding = private unnamed_addr constant [20 x i8] c"SetDatabaseEncoding\00", align 1

; Function Attrs: nounwind uwtable
define dso_local void @SetDatabaseEncoding(i32 noundef %0) #1 {
  %2 = alloca i32, align 4
  store i32 %0, ptr %2, align 4
  %3 = load i32, ptr %2, align 4
  %4 = icmp sge i32 %3, 0
  br i1 %4, label %5, label %8

5:                                                ; preds = %1
  %6 = load i32, ptr %2, align 4
  %7 = icmp sle i32 %6, 34
  br i1 %7, label %19, label %8

8:                                                ; preds = %5, %1
  br label %9

9:                                                ; preds = %8
  br i1 true, label %10, label %12

10:                                               ; preds = %9
  %11 = call zeroext i1 @errstart_cold(i32 noundef 21, ptr noundef null) #10
  br i1 %11, label %14, label %17

12:                                               ; preds = %9
  %13 = call zeroext i1 @errstart(i32 noundef 21, ptr noundef null)
  br i1 %13, label %14, label %17

14:                                               ; preds = %12, %10
  %15 = load i32, ptr %2, align 4
  %16 = call i32 (ptr, ...) @errmsg_internal(ptr noundef @.str.11, i32 noundef %15)
  call void @errfinish(ptr noundef @.str.1, i32 noundef 1164, ptr noundef @__func__.SetDatabaseEncoding)
  br label %17

17:                                               ; preds = %14, %12, %10
  unreachable

18:                                               ; No predecessors!
  br label %19

19:                                               ; preds = %18, %5
  %20 = load i32, ptr %2, align 4
  %21 = sext i32 %20 to i64
  %22 = getelementptr inbounds [0 x %struct.pg_enc2name], ptr @pg_enc2name_tbl, i64 0, i64 %21
  store ptr %22, ptr @DatabaseEncoding, align 8
  ret void
}