; Function Attrs: nounwind uwtable
define dso_local void @SetDatabaseEncoding(i32 noundef %0) local_unnamed_addr #0 {
  %or.cond = icmp ult i32 %0, 35
  br i1 %or.cond, label %5, label %2

2:                                                ; preds = %1
  %3 = tail call zeroext i1 @errstart_cold(i32 noundef 21, ptr noundef null) #14
  tail call void @llvm.assume(i1 %3)
  %4 = tail call i32 (ptr, ...) @errmsg_internal(ptr noundef nonnull @.str.11, i32 noundef %0) #13
  tail call void @errfinish(ptr noundef nonnull @.str.1, i32 noundef 1164, ptr noundef nonnull @__func__.SetDatabaseEncoding) #13
  unreachable

5:                                                ; preds = %1
  %6 = zext nneg i32 %0 to i64
  %7 = getelementptr inbounds nuw [0 x %struct.pg_enc2name], ptr @pg_enc2name_tbl, i64 0, i64 %6
  store ptr %7, ptr @DatabaseEncoding, align 8
  ret void
}